target datalayout = "e-m:e-p270:32:32-p271:32:32-p272:64:64-i64:64-i128:128-f80:128-n8:16:32:64-S128"
target triple = "x86_64-pc-linux-gnu"

%struct.Lpk_Fun_t_ = type { ptr, i32, i32, [32 x i32], i32, [16 x i32], [16 x i8], [0 x i32] }
%struct.Vec_Ptr_t_ = type { i32, i32, ptr }

; Function Attrs: inlinehint nounwind uwtable
define internal void @Vec_PtrGrow(ptr noundef %0, i32 noundef %1) #3 {
  %3 = alloca ptr, align 8
  %4 = alloca i32, align 4
  store ptr %0, ptr %3, align 8, !tbaa !12
  store i32 %1, ptr %4, align 4, !tbaa !3
  %5 = load ptr, ptr %3, align 8, !tbaa !12
  %6 = getelementptr inbounds nuw %struct.Vec_Ptr_t_, ptr %5, i32 0, i32 0
  %7 = load i32, ptr %6, align 8, !tbaa !30
  %8 = load i32, ptr %4, align 4, !tbaa !3
  %9 = icmp sge i32 %7, %8
  br i1 %9, label %10, label %11

10:                                               ; preds = %2
  br label %36

11:                                               ; preds = %2
  %12 = load ptr, ptr %3, align 8, !tbaa !12
  %13 = getelementptr inbounds nuw %struct.Vec_Ptr_t_, ptr %12, i32 0, i32 2
  %14 = load ptr, ptr %13, align 8, !tbaa !28
  %15 = icmp ne ptr %14, null
  br i1 %15, label %16, label %24

16:                                               ; preds = %11
  %17 = load ptr, ptr %3, align 8, !tbaa !12
  %18 = getelementptr inbounds nuw %struct.Vec_Ptr_t_, ptr %17, i32 0, i32 2
  %19 = load ptr, ptr %18, align 8, !tbaa !28
  %20 = load i32, ptr %4, align 4, !tbaa !3
  %21 = sext i32 %20 to i64
  %22 = mul i64 8, %21
  %23 = call ptr @realloc(ptr noundef %19, i64 noundef %22) #11
  br label %29

24:                                               ; preds = %11
  %25 = load i32, ptr %4, align 4, !tbaa !3
  %26 = sext i32 %25 to i64
  %27 = mul i64 8, %26
  %28 = call noalias ptr @malloc(i64 noundef %27) #10
  br label %29

29:                                               ; preds = %24, %16
  %30 = phi ptr [ %23, %16 ], [ %28, %24 ]
  %31 = load ptr, ptr %3, align 8, !tbaa !12
  %32 = getelementptr inbounds nuw %struct.Vec_Ptr_t_, ptr %31, i32 0, i32 2
  store ptr %30, ptr %32, align 8, !tbaa !28
  %33 = load i32, ptr %4, align 4, !tbaa !3
  %34 = load ptr, ptr %3, align 8, !tbaa !12
  %35 = getelementptr inbounds nuw %struct.Vec_Ptr_t_, ptr %34, i32 0, i32 0
  store i32 %33, ptr %35, align 8, !tbaa !30
  br label %36

36:                                               ; preds = %29, %10
  ret void
}

; Function Attrs: inlinehint nounwind uwtable
define internal i32 @Kit_TruthWordNum(i32 noundef %0) #3 {
  %2 = alloca i32, align 4
  store i32 %0, ptr %2, align 4, !tbaa !3
  %3 = load i32, ptr %2, align 4, !tbaa !3
  %4 = icmp sle i32 %3, 5
  br i1 %4, label %5, label %6

5:                                                ; preds = %1
  br label %10

6:                                                ; preds = %1
  %7 = load i32, ptr %2, align 4, !tbaa !3
  %8 = sub nsw i32 %7, 5
  %9 = shl i32 1, %8
  br label %10

10:                                               ; preds = %6, %5
  %11 = phi i32 [ 1, %5 ], [ %9, %6 ]
  ret i32 %11
}

; Function Attrs: inlinehint nounwind uwtable
define internal void @Vec_PtrPush(ptr noundef %0, ptr noundef %1) #3 {
  %3 = alloca ptr, align 8
  %4 = alloca ptr, align 8
  store ptr %0, ptr %3, align 8, !tbaa !12
  store ptr %1, ptr %4, align 8, !tbaa !29
  %5 = load ptr, ptr %3, align 8, !tbaa !12
  %6 = getelementptr inbounds nuw %struct.Vec_Ptr_t_, ptr %5, i32 0, i32 1
  %7 = load i32, ptr %6, align 4, !tbaa !25
  %8 = load ptr, ptr %3, align 8, !tbaa !12
  %9 = getelementptr inbounds nuw %struct.Vec_Ptr_t_, ptr %8, i32 0, i32 0
  %10 = load i32, ptr %9, align 8, !tbaa !30
  %11 = icmp eq i32 %7, %10
  br i1 %11, label %12, label %26

12:                                               ; preds = %2
  %13 = load ptr, ptr %3, align 8, !tbaa !12
  %14 = getelementptr inbounds nuw %struct.Vec_Ptr_t_, ptr %13, i32 0, i32 0
  %15 = load i32, ptr %14, align 8, !tbaa !30
  %16 = icmp slt i32 %15, 16
  br i1 %16, label %17, label %19

17:                                               ; preds = %12
  %18 = load ptr, ptr %3, align 8, !tbaa !12
  call void @Vec_PtrGrow(ptr noundef %18, i32 noundef 16)
  br label %25

19:                                               ; preds = %12
  %20 = load ptr, ptr %3, align 8, !tbaa !12
  %21 = load ptr, ptr %3, align 8, !tbaa !12
  %22 = getelementptr inbounds nuw %struct.Vec_Ptr_t_, ptr %21, i32 0, i32 0
  %23 = load i32, ptr %22, align 8, !tbaa !30
  %24 = mul nsw i32 2, %23
  call void @Vec_PtrGrow(ptr noundef %20, i32 noundef %24)
  br label %25

25:                                               ; preds = %19, %17
  br label %26

26:                                               ; preds = %25, %2
  %27 = load ptr, ptr %4, align 8, !tbaa !29
  %28 = load ptr, ptr %3, align 8, !tbaa !12
  %29 = getelementptr inbounds nuw %struct.Vec_Ptr_t_, ptr %28, i32 0, i32 2
  %30 = load ptr, ptr %29, align 8, !tbaa !28
  %31 = load ptr, ptr %3, align 8, !tbaa !12
  %32 = getelementptr inbounds nuw %struct.Vec_Ptr_t_, ptr %31, i32 0, i32 1
  %33 = load i32, ptr %32, align 4, !tbaa !25
  %34 = add nsw i32 %33, 1
  store i32 %34, ptr %32, align 4, !tbaa !25
  %35 = sext i32 %33 to i64
  %36 = getelementptr inbounds ptr, ptr %30, i64 %35
  store ptr %27, ptr %36, align 8, !tbaa !29
  ret void
}

; Function Attrs: inlinehint nounwind uwtable
define internal void @Kit_TruthCopy(ptr noundef %0, ptr noundef %1, i32 noundef %2) #3 {
  %4 = alloca ptr, align 8
  %5 = alloca ptr, align 8
  %6 = alloca i32, align 4
  %7 = alloca i32, align 4
  store ptr %0, ptr %4, align 8, !tbaa !14
  store ptr %1, ptr %5, align 8, !tbaa !14
  store i32 %2, ptr %6, align 4, !tbaa !3
  call void @llvm.lifetime.start.p0(i64 4, ptr %7) #9
  %8 = load i32, ptr %6, align 4, !tbaa !3
  %9 = call i32 @Kit_TruthWordNum(i32 noundef %8)
  %10 = sub nsw i32 %9, 1
  store i32 %10, ptr %7, align 4, !tbaa !3
  br label %11

11:                                               ; preds = %24, %3
  %12 = load i32, ptr %7, align 4, !tbaa !3
  %13 = icmp sge i32 %12, 0
  br i1 %13, label %14, label %27

14:                                               ; preds = %11
  %15 = load ptr, ptr %5, align 8, !tbaa !14
  %16 = load i32, ptr %7, align 4, !tbaa !3
  %17 = sext i32 %16 to i64
  %18 = getelementptr inbounds i32, ptr %15, i64 %17
  %19 = load i32, ptr %18, align 4, !tbaa !3
  %20 = load ptr, ptr %4, align 8, !tbaa !14
  %21 = load i32, ptr %7, align 4, !tbaa !3
  %22 = sext i32 %21 to i64
  %23 = getelementptr inbounds i32, ptr %20, i64 %22
  store i32 %19, ptr %23, align 4, !tbaa !3
  br label %24

24:                                               ; preds = %14
  %25 = load i32, ptr %7, align 4, !tbaa !3
  %26 = add nsw i32 %25, -1
  store i32 %26, ptr %7, align 4, !tbaa !3
  br label %11, !llvm.loop !27

27:                                               ; preds = %11
  call void @llvm.lifetime.end.p0(i64 4, ptr %7) #9
  ret void
}

; Function Attrs: inlinehint nounwind uwtable
define internal ptr @Lpk_FunTruth(ptr noundef %0, i32 noundef %1) #3 {
  %3 = alloca ptr, align 8
  %4 = alloca i32, align 4
  store ptr %0, ptr %3, align 8, !tbaa !7
  store i32 %1, ptr %4, align 4, !tbaa !3
  %5 = load ptr, ptr %3, align 8, !tbaa !7
  %6 = getelementptr inbounds nuw %struct.Lpk_Fun_t_, ptr %5, i32 0, i32 7
  %7 = getelementptr inbounds [0 x i32], ptr %6, i64 0, i64 0
  %8 = load ptr, ptr %3, align 8, !tbaa !7
  %9 = getelementptr inbounds nuw %struct.Lpk_Fun_t_, ptr %8, i32 0, i32 1
  %10 = load i32, ptr %9, align 8
  %11 = lshr i32 %10, 7
  %12 = and i32 %11, 31
  %13 = call i32 @Kit_TruthWordNum(i32 noundef %12)
  %14 = load i32, ptr %4, align 4, !tbaa !3
  %15 = mul nsw i32 %13, %14
  %16 = sext i32 %15 to i64
  %17 = getelementptr inbounds i32, ptr %7, i64 %16
  ret ptr %17
}

; Function Attrs: inlinehint nounwind uwtable
define internal i32 @Vec_PtrSize(ptr noundef %0) #3 {
  %2 = alloca ptr, align 8
  store ptr %0, ptr %2, align 8, !tbaa !12
  %3 = load ptr, ptr %2, align 8, !tbaa !12
  %4 = getelementptr inbounds nuw %struct.Vec_Ptr_t_, ptr %3, i32 0, i32 1
  %5 = load i32, ptr %4, align 4, !tbaa !25
  ret i32 %5
}

; Function Attrs: nounwind uwtable
define ptr @Lpk_FunAlloc(i32 noundef %0) #0 {
  %2 = alloca i32, align 4
  %3 = alloca ptr, align 8
  store i32 %0, ptr %2, align 4, !tbaa !3
  call void @llvm.lifetime.start.p0(i64 8, ptr %3) #9
  %4 = load i32, ptr %2, align 4, !tbaa !3
  %5 = call i32 @Kit_TruthWordNum(i32 noundef %4)
  %6 = sext i32 %5 to i64
  %7 = mul i64 4, %6
  %8 = mul i64 %7, 3
  %9 = add i64 232, %8
  %10 = mul i64 1, %9
  %11 = call noalias ptr @malloc(i64 noundef %10) #10
  store ptr %11, ptr %3, align 8, !tbaa !7
  %12 = load ptr, ptr %3, align 8, !tbaa !7
  call void @llvm.memset.p0.i64(ptr align 8 %12, i8 0, i64 232, i1 false)
  %13 = load ptr, ptr %3, align 8, !tbaa !7
  call void @llvm.lifetime.end.p0(i64 8, ptr %3) #9
  ret ptr %13
}

; Function Attrs: nounwind uwtable
define ptr @Lpk_FunDup(ptr noundef %0, ptr noundef %1) #0 {
  %3 = alloca ptr, align 8
  %4 = alloca ptr, align 8
  %5 = alloca ptr, align 8
  store ptr %0, ptr %3, align 8, !tbaa !7
  store ptr %1, ptr %4, align 8, !tbaa !14
  call void @llvm.lifetime.start.p0(i64 8, ptr %5) #9
  %6 = load ptr, ptr %3, align 8, !tbaa !7
  %7 = getelementptr inbounds nuw %struct.Lpk_Fun_t_, ptr %6, i32 0, i32 1
  %8 = load i32, ptr %7, align 8
  %9 = lshr i32 %8, 7
  %10 = and i32 %9, 31
  %11 = call ptr @Lpk_FunAlloc(i32 noundef %10)
  store ptr %11, ptr %5, align 8, !tbaa !7
  %12 = load ptr, ptr %3, align 8, !tbaa !7
  %13 = getelementptr inbounds nuw %struct.Lpk_Fun_t_, ptr %12, i32 0, i32 0
  %14 = load ptr, ptr %13, align 8, !tbaa !16
  %15 = call i32 @Vec_PtrSize(ptr noundef %14)
  %16 = load ptr, ptr %5, align 8, !tbaa !7
  %17 = getelementptr inbounds nuw %struct.Lpk_Fun_t_, ptr %16, i32 0, i32 1
  %18 = load i32, ptr %17, align 8
  %19 = and i32 %15, 127
  %20 = and i32 %18, -128
  %21 = or i32 %20, %19
  store i32 %21, ptr %17, align 8
  %22 = load ptr, ptr %3, align 8, !tbaa !7
  %23 = getelementptr inbounds nuw %struct.Lpk_Fun_t_, ptr %22, i32 0, i32 0
  %24 = load ptr, ptr %23, align 8, !tbaa !16
  %25 = load ptr, ptr %5, align 8, !tbaa !7
  %26 = getelementptr inbounds nuw %struct.Lpk_Fun_t_, ptr %25, i32 0, i32 0
  store ptr %24, ptr %26, align 8, !tbaa !16
  %27 = load ptr, ptr %3, align 8, !tbaa !7
  %28 = getelementptr inbounds nuw %struct.Lpk_Fun_t_, ptr %27, i32 0, i32 1
  %29 = load i32, ptr %28, align 8
  %30 = lshr i32 %29, 7
  %31 = and i32 %30, 31
  %32 = load ptr, ptr %5, align 8, !tbaa !7
  %33 = getelementptr inbounds nuw %struct.Lpk_Fun_t_, ptr %32, i32 0, i32 1
  %34 = load i32, ptr %33, align 8
  %35 = and i32 %31, 31
  %36 = shl i32 %35, 7
  %37 = and i32 %34, -3969
  %38 = or i32 %37, %36
  store i32 %38, ptr %33, align 8
  %39 = load ptr, ptr %3, align 8, !tbaa !7
  %40 = getelementptr inbounds nuw %struct.Lpk_Fun_t_, ptr %39, i32 0, i32 1
  %41 = load i32, ptr %40, align 8
  %42 = lshr i32 %41, 12
  %43 = and i32 %42, 15
  %44 = load ptr, ptr %5, align 8, !tbaa !7
  %45 = getelementptr inbounds nuw %struct.Lpk_Fun_t_, ptr %44, i32 0, i32 1
  %46 = load i32, ptr %45, align 8
  %47 = and i32 %43, 15
  %48 = shl i32 %47, 12
  %49 = and i32 %46, -61441
  %50 = or i32 %49, %48
  store i32 %50, ptr %45, align 8
  %51 = load ptr, ptr %3, align 8, !tbaa !7
  %52 = getelementptr inbounds nuw %struct.Lpk_Fun_t_, ptr %51, i32 0, i32 1
  %53 = load i32, ptr %52, align 8
  %54 = lshr i32 %53, 16
  %55 = and i32 %54, 16383
  %56 = load ptr, ptr %5, align 8, !tbaa !7
  %57 = getelementptr inbounds nuw %struct.Lpk_Fun_t_, ptr %56, i32 0, i32 1
  %58 = load i32, ptr %57, align 8
  %59 = and i32 %55, 16383
  %60 = shl i32 %59, 16
  %61 = and i32 %58, -1073676289
  %62 = or i32 %61, %60
  store i32 %62, ptr %57, align 8
  %63 = load ptr, ptr %3, align 8, !tbaa !7
  %64 = getelementptr inbounds nuw %struct.Lpk_Fun_t_, ptr %63, i32 0, i32 4
  %65 = load i32, ptr %64, align 8, !tbaa !18
  %66 = load ptr, ptr %5, align 8, !tbaa !7
  %67 = getelementptr inbounds nuw %struct.Lpk_Fun_t_, ptr %66, i32 0, i32 4
  store i32 %65, ptr %67, align 8, !tbaa !18
  %68 = load ptr, ptr %4, align 8, !tbaa !14
  %69 = load ptr, ptr %3, align 8, !tbaa !7
  %70 = getelementptr inbounds nuw %struct.Lpk_Fun_t_, ptr %69, i32 0, i32 1
  %71 = load i32, ptr %70, align 8
  %72 = lshr i32 %71, 7
  %73 = and i32 %72, 31
  %74 = call i32 @Kit_TruthSupport(ptr noundef %68, i32 noundef %73)
  %75 = load ptr, ptr %5, align 8, !tbaa !7
  %76 = getelementptr inbounds nuw %struct.Lpk_Fun_t_, ptr %75, i32 0, i32 2
  store i32 %74, ptr %76, align 4, !tbaa !19
  %77 = load ptr, ptr %5, align 8, !tbaa !7
  %78 = call ptr @Lpk_FunTruth(ptr noundef %77, i32 noundef 0)
  %79 = load ptr, ptr %4, align 8, !tbaa !14
  %80 = load ptr, ptr %3, align 8, !tbaa !7
  %81 = getelementptr inbounds nuw %struct.Lpk_Fun_t_, ptr %80, i32 0, i32 1
  %82 = load i32, ptr %81, align 8
  %83 = lshr i32 %82, 7
  %84 = and i32 %83, 31
  call void @Kit_TruthCopy(ptr noundef %78, ptr noundef %79, i32 noundef %84)
  %85 = load ptr, ptr %5, align 8, !tbaa !7
  %86 = getelementptr inbounds nuw %struct.Lpk_Fun_t_, ptr %85, i32 0, i32 6
  %87 = getelementptr inbounds [16 x i8], ptr %86, i64 0, i64 0
  %88 = load ptr, ptr %3, align 8, !tbaa !7
  %89 = getelementptr inbounds nuw %struct.Lpk_Fun_t_, ptr %88, i32 0, i32 6
  %90 = getelementptr inbounds [16 x i8], ptr %89, i64 0, i64 0
  call void @llvm.memcpy.p0.p0.i64(ptr align 4 %87, ptr align 4 %90, i64 16, i1 false)
  %91 = load ptr, ptr %5, align 8, !tbaa !7
  %92 = getelementptr inbounds nuw %struct.Lpk_Fun_t_, ptr %91, i32 0, i32 5
  %93 = getelementptr inbounds [16 x i32], ptr %92, i64 0, i64 0
  %94 = load ptr, ptr %3, align 8, !tbaa !7
  %95 = getelementptr inbounds nuw %struct.Lpk_Fun_t_, ptr %94, i32 0, i32 5
  %96 = getelementptr inbounds [16 x i32], ptr %95, i64 0, i64 0
  call void @llvm.memcpy.p0.p0.i64(ptr align 4 %93, ptr align 4 %96, i64 64, i1 false)
  %97 = load ptr, ptr %3, align 8, !tbaa !7
  %98 = getelementptr inbounds nuw %struct.Lpk_Fun_t_, ptr %97, i32 0, i32 0
  %99 = load ptr, ptr %98, align 8, !tbaa !16
  %100 = load ptr, ptr %5, align 8, !tbaa !7
  call void @Vec_PtrPush(ptr noundef %99, ptr noundef %100)
  %101 = load ptr, ptr %5, align 8, !tbaa !7
  call void @llvm.lifetime.end.p0(i64 8, ptr %5) #9
  ret ptr %101
}