; Function Attrs: nounwind uwtable
define noundef ptr @Lpk_FunDup(ptr noundef readonly captures(none) %0, ptr noundef %1) local_unnamed_addr #5 {
Kit_TruthCopy.exit:
  %2 = getelementptr inbounds nuw i8, ptr %0, i64 8
  %3 = load i32, ptr %2, align 8
  %4 = lshr i32 %3, 7
  %5 = and i32 %4, 31
  %6 = tail call i32 @llvm.usub.sat.i32(i32 %5, i32 5)
  %7 = zext nneg i32 %6 to i64
  %8 = shl nuw nsw i64 12, %7
  %9 = add nuw nsw i64 %8, 232
  %10 = tail call noalias noundef ptr @malloc(i64 noundef %9) #12
  %11 = getelementptr inbounds nuw i8, ptr %10, i64 16
  tail call void @llvm.memset.p0.i64(ptr noundef nonnull align 8 dereferenceable(232) %11, i8 0, i64 216, i1 false)
  %12 = load ptr, ptr %0, align 8, !tbaa !9
  %13 = getelementptr i8, ptr %12, i64 4
  %.val = load i32, ptr %13, align 4, !tbaa !3
  %14 = getelementptr inbounds nuw i8, ptr %10, i64 8
  %15 = and i32 %.val, 127
  store ptr %12, ptr %10, align 8, !tbaa !9
  %16 = and i32 %3, 1073741696
  %17 = or disjoint i32 %15, %16
  store i32 %17, ptr %14, align 8
  %18 = getelementptr inbounds nuw i8, ptr %0, i64 144
  %19 = load i32, ptr %18, align 8, !tbaa !12
  %20 = getelementptr inbounds nuw i8, ptr %10, i64 144
  store i32 %19, ptr %20, align 8, !tbaa !12
  %21 = tail call i32 @Kit_TruthSupport(ptr noundef %1, i32 noundef %5) #13
  %22 = getelementptr inbounds nuw i8, ptr %10, i64 12
  store i32 %21, ptr %22, align 4, !tbaa !13
  %23 = load i32, ptr %2, align 8
  %24 = lshr i32 %23, 7
  %25 = and i32 %24, 31
  %26 = icmp samesign ult i32 %25, 6
  %27 = add nsw i32 %25, -5
  %28 = shl nuw nsw i32 1, %27
  %spec.select.i = select i1 %26, i32 1, i32 %28
  %29 = zext nneg i32 %spec.select.i to i64
  %scevgep = getelementptr i8, ptr %10, i64 228
  %30 = shl nuw nsw i64 %29, 2
  tail call void @llvm.memcpy.p0.p0.i64(ptr noundef nonnull align 4 dereferenceable(1) %scevgep, ptr noundef nonnull align 4 dereferenceable(1) %1, i64 %30, i1 false), !tbaa !14
  %31 = getelementptr inbounds nuw i8, ptr %10, i64 212
  %32 = getelementptr inbounds nuw i8, ptr %0, i64 212
  tail call void @llvm.memcpy.p0.p0.i64(ptr noundef nonnull align 4 dereferenceable(16) %31, ptr noundef nonnull align 4 dereferenceable(16) %32, i64 16, i1 false)
  %33 = getelementptr inbounds nuw i8, ptr %10, i64 148
  %34 = getelementptr inbounds nuw i8, ptr %0, i64 148
  tail call void @llvm.memcpy.p0.p0.i64(ptr noundef nonnull align 4 dereferenceable(64) %33, ptr noundef nonnull align 4 dereferenceable(64) %34, i64 64, i1 false)
  %35 = load ptr, ptr %0, align 8, !tbaa !9
  %36 = getelementptr inbounds nuw i8, ptr %35, i64 4
  %37 = load i32, ptr %36, align 4, !tbaa !3
  %38 = load i32, ptr %35, align 8, !tbaa !20
  %39 = icmp eq i32 %37, %38
  br i1 %39, label %40, label %.Vec_PtrGrow.exit11_crit_edge.i

.Vec_PtrGrow.exit11_crit_edge.i:                  ; preds = %Kit_TruthCopy.exit
  %.phi.trans.insert.i = getelementptr inbounds nuw i8, ptr %35, i64 8
  %.pre.i = load ptr, ptr %.phi.trans.insert.i, align 8, !tbaa !15
  br label %Vec_PtrPush.exit

40:                                               ; preds = %Kit_TruthCopy.exit
  %41 = icmp slt i32 %37, 16
  br i1 %41, label %42, label %50

42:                                               ; preds = %40
  %43 = getelementptr inbounds nuw i8, ptr %35, i64 8
  %44 = load ptr, ptr %43, align 8, !tbaa !15
  %.not9.i.i = icmp eq ptr %44, null
  br i1 %.not9.i.i, label %47, label %45

45:                                               ; preds = %42
  %46 = tail call dereferenceable_or_null(128) ptr @realloc(ptr noundef nonnull %44, i64 noundef 128) #14
  br label %Vec_PtrGrow.exit.i

47:                                               ; preds = %42
  %48 = tail call noalias dereferenceable_or_null(128) ptr @malloc(i64 noundef 128) #12
  br label %Vec_PtrGrow.exit.i

Vec_PtrGrow.exit.i:                               ; preds = %47, %45
  %49 = phi ptr [ %46, %45 ], [ %48, %47 ]
  store ptr %49, ptr %43, align 8, !tbaa !15
  store i32 16, ptr %35, align 8, !tbaa !20
  br label %Vec_PtrPush.exit

50:                                               ; preds = %40
  %51 = shl nuw nsw i32 %37, 1
  %52 = getelementptr inbounds nuw i8, ptr %35, i64 8
  %53 = load ptr, ptr %52, align 8, !tbaa !15
  %.not9.i10.i = icmp eq ptr %53, null
  %54 = zext nneg i32 %51 to i64
  %55 = shl nuw nsw i64 %54, 3
  br i1 %.not9.i10.i, label %58, label %56

56:                                               ; preds = %50
  %57 = tail call ptr @realloc(ptr noundef nonnull %53, i64 noundef %55) #14
  br label %60

58:                                               ; preds = %50
  %59 = tail call noalias ptr @malloc(i64 noundef %55) #12
  br label %60

60:                                               ; preds = %58, %56
  %61 = phi ptr [ %57, %56 ], [ %59, %58 ]
  store ptr %61, ptr %52, align 8, !tbaa !15
  store i32 %51, ptr %35, align 8, !tbaa !20
  br label %Vec_PtrPush.exit

Vec_PtrPush.exit:                                 ; preds = %.Vec_PtrGrow.exit11_crit_edge.i, %Vec_PtrGrow.exit.i, %60
  %62 = phi ptr [ %.pre.i, %.Vec_PtrGrow.exit11_crit_edge.i ], [ %61, %60 ], [ %49, %Vec_PtrGrow.exit.i ]
  %63 = load i32, ptr %36, align 4, !tbaa !3
  %64 = add nsw i32 %63, 1
  store i32 %64, ptr %36, align 4, !tbaa !3
  %65 = sext i32 %63 to i64
  %66 = getelementptr inbounds ptr, ptr %62, i64 %65
  store ptr %10, ptr %66, align 8, !tbaa !16
  ret ptr %10
}